; Function Attrs: nounwind uwtable
define internal void @__itt_relation_add_to_current_ex_init_3_0(ptr noundef %0, ptr noundef %1, i64 noundef %2, i32 noundef %3, ptr noundef readonly byval(%struct.___itt_id) align 8 captures(none) %4) #0 {
  %6 = load volatile i64, ptr getelementptr inbounds nuw (i8, ptr @__itt__ittapi_global, i64 32), align 8, !tbaa !3
  %7 = icmp eq i64 %6, 0
  %8 = load ptr, ptr getelementptr inbounds nuw (i8, ptr @__itt__ittapi_global, i64 136), align 8
  %9 = icmp eq ptr %8, null
  %or.cond = select i1 %7, i1 %9, i1 false
  br i1 %or.cond, label %10, label %12

10:                                               ; preds = %5
  %11 = tail call i32 @__itt_init_ittlib(ptr noundef null, i32 noundef -1)
  br label %12

12:                                               ; preds = %10, %5
  %13 = load ptr, ptr @__itt_relation_add_to_current_ex_ptr__3_0, align 8, !tbaa !20
  %14 = icmp ne ptr %13, null
  %15 = icmp ne ptr %13, @__itt_relation_add_to_current_ex_init_3_0
  %or.cond3 = and i1 %14, %15
  br i1 %or.cond3, label %16, label %17

16:                                               ; preds = %12
  tail call void %13(ptr noundef %0, ptr noundef %1, i64 noundef %2, i32 noundef %3, ptr noundef nonnull byval(%struct.___itt_id) align 8 %4) #14
  br label %17

17:                                               ; preds = %12, %16
  ret void
}